; Function Attrs: mustprogress nounwind uwtable
define internal void @_ZN3gmx12_GLOBAL__N_114UnitAmplitudesD0Ev(ptr noundef nonnull align 8 dereferenceable(32) %0) unnamed_addr #3 align 2 personality ptr @__gxx_personality_v0 {
  %2 = getelementptr inbounds i8, ptr %0, i64 8
  %3 = load ptr, ptr %2, align 8
  %.not.i.i.i.i = icmp eq ptr %3, null
  br i1 %.not.i.i.i.i, label %_ZN3gmx12_GLOBAL__N_114UnitAmplitudesD2Ev.exit, label %4

4:                                                ; preds = %1
  tail call void @_ZdlPv(ptr noundef nonnull %3) #11
  br label %_ZN3gmx12_GLOBAL__N_114UnitAmplitudesD2Ev.exit

_ZN3gmx12_GLOBAL__N_114UnitAmplitudesD2Ev.exit:   ; preds = %1, %4
  tail call void @_ZdlPv(ptr noundef nonnull %0) #11
  ret void
}